; Function Attrs: inlinehint nounwind uwtable
define internal fastcc ptr @cryptohash_internal(i32 noundef range(i32 2, 6) %0, ptr noundef %1) unnamed_addr #4 {
switch.lookup:
  %switch.tableidx = add nsw i32 %0, -2
  %2 = sext i32 %switch.tableidx to i64
  %switch.gep = getelementptr inbounds [4 x i32], ptr @switch.table.cryptohash_internal, i64 0, i64 %2
  %switch.load = load i32, ptr %switch.gep, align 4
  %3 = sext i32 %switch.tableidx to i64
  %switch.gep36 = getelementptr inbounds [4 x ptr], ptr @switch.table.cryptohash_internal.1, i64 0, i64 %3
  %switch.load37 = load ptr, ptr %switch.gep36, align 8
  %4 = add nuw nsw i32 %switch.load, 4
  %5 = zext nneg i32 %4 to i64
  %6 = tail call ptr @palloc0(i64 noundef %5) #6
  %7 = load i8, ptr %1, align 1
  %8 = zext i8 %7 to i32
  %9 = icmp eq i8 %7, 1
  br i1 %9, label %10, label %19

10:                                               ; preds = %switch.lookup
  %11 = getelementptr inbounds nuw i8, ptr %1, i64 1
  %12 = load i8, ptr %11, align 1
  %13 = icmp eq i8 %12, 1
  %14 = and i8 %12, -2
  %15 = icmp eq i8 %14, 2
  %or.cond = or i1 %13, %15
  %16 = icmp eq i8 %12, 18
  %17 = select i1 %16, i64 16, i64 0
  %18 = select i1 %or.cond, i64 8, i64 %17
  br label %30

19:                                               ; preds = %switch.lookup
  %20 = and i32 %8, 1
  %.not = icmp eq i32 %20, 0
  br i1 %.not, label %25, label %21

21:                                               ; preds = %19
  %22 = lshr i32 %8, 1
  %23 = zext nneg i32 %22 to i64
  %24 = add nsw i64 %23, -1
  br label %30

25:                                               ; preds = %19
  %26 = load i32, ptr %1, align 4
  %27 = lshr i32 %26, 2
  %28 = add nsw i32 %27, -4
  %29 = zext i32 %28 to i64
  br label %30

30:                                               ; preds = %21, %25, %10
  %31 = phi i64 [ %18, %10 ], [ %24, %21 ], [ %29, %25 ]
  %32 = tail call ptr @pg_cryptohash_create(i32 noundef %0) #6
  %33 = tail call i32 @pg_cryptohash_init(ptr noundef %32) #6
  %34 = icmp slt i32 %33, 0
  br i1 %34, label %35, label %39

35:                                               ; preds = %30
  %36 = tail call zeroext i1 @errstart_cold(i32 noundef 21, ptr noundef null) #7
  tail call void @llvm.assume(i1 %36)
  %37 = tail call ptr @pg_cryptohash_error(ptr noundef %32) #6
  %38 = tail call i32 (ptr, ...) @errmsg_internal(ptr noundef nonnull @.str.8, ptr noundef nonnull %switch.load37, ptr noundef %37) #6
  tail call void @errfinish(ptr noundef nonnull @.str.2, i32 noundef 120, ptr noundef nonnull @__func__.cryptohash_internal) #6
  unreachable

39:                                               ; preds = %30
  %40 = and i8 %7, 1
  %.not33 = icmp eq i8 %40, 0
  %.v = select i1 %.not33, i64 4, i64 1
  %41 = getelementptr inbounds nuw i8, ptr %1, i64 %.v
  %42 = tail call i32 @pg_cryptohash_update(ptr noundef %32, ptr noundef nonnull %41, i64 noundef %31) #6
  %43 = icmp slt i32 %42, 0
  br i1 %43, label %44, label %48

44:                                               ; preds = %39
  %45 = tail call zeroext i1 @errstart_cold(i32 noundef 21, ptr noundef null) #7
  tail call void @llvm.assume(i1 %45)
  %46 = tail call ptr @pg_cryptohash_error(ptr noundef %32) #6
  %47 = tail call i32 (ptr, ...) @errmsg_internal(ptr noundef nonnull @.str.9, ptr noundef nonnull %switch.load37, ptr noundef %46) #6
  tail call void @errfinish(ptr noundef nonnull @.str.2, i32 noundef 123, ptr noundef nonnull @__func__.cryptohash_internal) #6
  unreachable

48:                                               ; preds = %39
  %49 = getelementptr inbounds nuw i8, ptr %6, i64 4
  %50 = zext nneg i32 %switch.load to i64
  %51 = tail call i32 @pg_cryptohash_final(ptr noundef %32, ptr noundef nonnull %49, i64 noundef %50) #6
  %52 = icmp slt i32 %51, 0
  br i1 %52, label %53, label %57

53:                                               ; preds = %48
  %54 = tail call zeroext i1 @errstart_cold(i32 noundef 21, ptr noundef null) #7
  tail call void @llvm.assume(i1 %54)
  %55 = tail call ptr @pg_cryptohash_error(ptr noundef %32) #6
  %56 = tail call i32 (ptr, ...) @errmsg_internal(ptr noundef nonnull @.str.10, ptr noundef nonnull %switch.load37, ptr noundef %55) #6
  tail call void @errfinish(ptr noundef nonnull @.str.2, i32 noundef 127, ptr noundef nonnull @__func__.cryptohash_internal) #6
  unreachable

57:                                               ; preds = %48
  tail call void @pg_cryptohash_free(ptr noundef %32) #6
  %58 = shl nuw nsw i32 %4, 2
  store i32 %58, ptr %6, align 4
  ret ptr %6
}